target datalayout = "e-m:e-p270:32:32-p271:32:32-p272:64:64-i64:64-i128:128-f80:128-n8:16:32:64-S128"
target triple = "x86_64-pc-linux-gnu"

@.str = private unnamed_addr constant [22 x i8] c"HDF5_USE_FILE_LOCKING\00", align 1
@.str.1 = private unnamed_addr constant [12 x i8] c"BEST_EFFORT\00", align 1
@ignore_disabled_file_locks_s = internal global i32 -1, align 4
@.str.2 = private unnamed_addr constant [5 x i8] c"TRUE\00", align 1
@.str.3 = private unnamed_addr constant [2 x i8] c"1\00", align 1
@H5FD_SEC2_g = internal global i64 0, align 8

; Function Attrs: nounwind uwtable
define i64 @H5FD_sec2_init() #0 {
  %1 = alloca ptr, align 8
  %2 = alloca i64, align 8
  store ptr null, ptr %1, align 8
  store i64 -1, ptr %2, align 8
  %3 = call ptr @getenv(ptr noundef @.str) #6
  store ptr %3, ptr %1, align 8
  %4 = load ptr, ptr %1, align 8
  %5 = icmp ne ptr %4, null
  br i1 %5, label %6, label %11

6:                                                ; preds = %0
  %7 = load ptr, ptr %1, align 8
  %8 = call i32 @strcmp(ptr noundef %7, ptr noundef @.str.1) #7
  %9 = icmp ne i32 %8, 0
  br i1 %9, label %11, label %10

10:                                               ; preds = %6
  store i32 1, ptr @ignore_disabled_file_locks_s, align 4
  br label %25

11:                                               ; preds = %6, %0
  %12 = load ptr, ptr %1, align 8
  %13 = icmp ne ptr %12, null
  br i1 %13, label %14, label %23

14:                                               ; preds = %11
  %15 = load ptr, ptr %1, align 8
  %16 = call i32 @strcmp(ptr noundef %15, ptr noundef @.str.2) #7
  %17 = icmp ne i32 %16, 0
  br i1 %17, label %18, label %22

18:                                               ; preds = %14
  %19 = load ptr, ptr %1, align 8
  %20 = call i32 @strcmp(ptr noundef %19, ptr noundef @.str.3) #7
  %21 = icmp ne i32 %20, 0
  br i1 %21, label %23, label %22

22:                                               ; preds = %18, %14
  store i32 0, ptr @ignore_disabled_file_locks_s, align 4
  br label %24

23:                                               ; preds = %18, %11
  store i32 -1, ptr @ignore_disabled_file_locks_s, align 4
  br label %24

24:                                               ; preds = %23, %22
  br label %25

25:                                               ; preds = %24, %10
  %26 = load i64, ptr @H5FD_SEC2_g, align 8
  %27 = call i32 @H5I_get_type(i64 noundef %26)
  %28 = icmp ne i32 8, %27
  br i1 %28, label %29, label %31

29:                                               ; preds = %25
  %30 = call i64 @H5FD_register(ptr noundef @H5FD_sec2_g, i64 noundef 336, i1 noundef zeroext false)
  store i64 %30, ptr @H5FD_SEC2_g, align 8
  br label %31

31:                                               ; preds = %29, %25
  %32 = load i64, ptr @H5FD_SEC2_g, align 8
  store i64 %32, ptr %2, align 8
  %33 = load i64, ptr %2, align 8
  ret i64 %33
}