; Function Attrs: nounwind uwtable
define i64 @H5FD_sec2_init() #0 {
  %1 = tail call ptr @getenv(ptr noundef nonnull @.str) #15
  %.not = icmp eq ptr %1, null
  br i1 %.not, label %.critedge, label %2

2:                                                ; preds = %0
  %3 = tail call i32 @strcmp(ptr noundef nonnull dereferenceable(1) %1, ptr noundef nonnull dereferenceable(12) @.str.1) #16
  %.not5 = icmp eq i32 %3, 0
  br i1 %.not5, label %10, label %4

4:                                                ; preds = %2
  %5 = tail call i32 @strcmp(ptr noundef nonnull dereferenceable(1) %1, ptr noundef nonnull dereferenceable(5) @.str.2) #16
  %.not6 = icmp eq i32 %5, 0
  br i1 %.not6, label %10, label %sub_0

sub_0:                                            ; preds = %4
  %6 = load i8, ptr %1, align 1
  %.not9 = icmp eq i8 %6, 49
  br i1 %.not9, label %.tail, label %.critedge

.tail:                                            ; preds = %sub_0
  %7 = getelementptr inbounds i8, ptr %1, i64 1
  %8 = load i8, ptr %7, align 1
  %9 = icmp eq i8 %8, 0
  br i1 %9, label %10, label %.critedge

.critedge:                                        ; preds = %sub_0, %0, %.tail
  br label %10

10:                                               ; preds = %4, %.tail, %2, %.critedge
  %.sink = phi i32 [ -1, %.critedge ], [ 1, %2 ], [ 0, %.tail ], [ 0, %4 ]
  store i32 %.sink, ptr @ignore_disabled_file_locks_s, align 4
  %11 = load i64, ptr @H5FD_SEC2_g, align 8
  %12 = tail call i32 @H5I_get_type(i64 noundef %11) #15
  %.not8 = icmp eq i32 %12, 8
  br i1 %.not8, label %._crit_edge, label %13

._crit_edge:                                      ; preds = %10
  %.pre = load i64, ptr @H5FD_SEC2_g, align 8
  br label %15

13:                                               ; preds = %10
  %14 = tail call i64 @H5FD_register(ptr noundef nonnull @H5FD_sec2_g, i64 noundef 336, i1 noundef zeroext false) #15
  store i64 %14, ptr @H5FD_SEC2_g, align 8
  br label %15

15:                                               ; preds = %._crit_edge, %13
  %16 = phi i64 [ %.pre, %._crit_edge ], [ %14, %13 ]
  ret i64 %16
}